target datalayout = "e-m:e-p270:32:32-p271:32:32-p272:64:64-i64:64-i128:128-f80:128-n8:16:32:64-S128"
target triple = "x86_64-pc-linux-gnu"

@.str.31 = private unnamed_addr constant [3 x i8] c"%s\00", align 1
@.str.114 = private unnamed_addr constant [5 x i8] c"  %c\00", align 1
@.str.127 = private unnamed_addr constant [3 x i8] c"%c\00", align 1
@.str.196 = private unnamed_addr constant [5 x i8] c"%c  \00", align 1

; Function Attrs: mustprogress nounwind uwtable
define hidden void @_ZN13CodeHeapState8printBoxEP12outputStreamcPKcS3_(ptr noundef %0, i8 noundef signext %1, ptr noundef %2, ptr noundef %3) #1 align 2 {
  %5 = alloca ptr, align 8
  %6 = alloca i8, align 1
  %7 = alloca ptr, align 8
  %8 = alloca ptr, align 8
  %9 = alloca i32, align 4
  %10 = alloca i8, align 1
  %11 = alloca i8, align 1
  %12 = alloca i32, align 4
  %13 = alloca i32, align 4
  store ptr %0, ptr %5, align 8
  store i8 %1, ptr %6, align 1
  store ptr %2, ptr %7, align 8
  store ptr %3, ptr %8, align 8
  store i32 6, ptr %9, align 4
  %14 = load ptr, ptr %7, align 8
  %15 = icmp ne ptr %14, null
  br i1 %15, label %16, label %22

16:                                               ; preds = %4
  %17 = load ptr, ptr %7, align 8
  %18 = call i64 @strlen(ptr noundef %17) #8
  %19 = trunc i64 %18 to i32
  %20 = load i32, ptr %9, align 4
  %21 = add i32 %20, %19
  store i32 %21, ptr %9, align 4
  br label %22

22:                                               ; preds = %16, %4
  %23 = load ptr, ptr %8, align 8
  %24 = icmp ne ptr %23, null
  br i1 %24, label %25, label %31

25:                                               ; preds = %22
  %26 = load ptr, ptr %8, align 8
  %27 = call i64 @strlen(ptr noundef %26) #8
  %28 = trunc i64 %27 to i32
  %29 = load i32, ptr %9, align 4
  %30 = add i32 %29, %28
  store i32 %30, ptr %9, align 4
  br label %31

31:                                               ; preds = %25, %22
  %32 = load i8, ptr %6, align 1
  %33 = sext i8 %32 to i32
  %34 = icmp eq i32 %33, 45
  br i1 %34, label %35, label %36

35:                                               ; preds = %31
  store i8 43, ptr %10, align 1
  store i8 124, ptr %11, align 1
  br label %39

36:                                               ; preds = %31
  %37 = load i8, ptr %6, align 1
  store i8 %37, ptr %10, align 1
  %38 = load i8, ptr %6, align 1
  store i8 %38, ptr %11, align 1
  br label %39

39:                                               ; preds = %36, %35
  %40 = load ptr, ptr %5, align 8
  %41 = load i8, ptr %10, align 1
  %42 = sext i8 %41 to i32
  call void (ptr, ptr, ...) @_ZN12outputStream5printEPKcz(ptr noundef nonnull align 8 dereferenceable(56) %40, ptr noundef @.str.127, i32 noundef %42)
  store i32 0, ptr %12, align 4
  br label %43

43:                                               ; preds = %52, %39
  %44 = load i32, ptr %12, align 4
  %45 = load i32, ptr %9, align 4
  %46 = sub i32 %45, 2
  %47 = icmp ult i32 %44, %46
  br i1 %47, label %48, label %55

48:                                               ; preds = %43
  %49 = load ptr, ptr %5, align 8
  %50 = load i8, ptr %6, align 1
  %51 = sext i8 %50 to i32
  call void (ptr, ptr, ...) @_ZN12outputStream5printEPKcz(ptr noundef nonnull align 8 dereferenceable(56) %49, ptr noundef @.str.127, i32 noundef %51)
  br label %52

52:                                               ; preds = %48
  %53 = load i32, ptr %12, align 4
  %54 = add i32 %53, 1
  store i32 %54, ptr %12, align 4
  br label %43, !llvm.loop !24

55:                                               ; preds = %43
  %56 = load ptr, ptr %5, align 8
  %57 = load i8, ptr %10, align 1
  %58 = sext i8 %57 to i32
  call void (ptr, ptr, ...) @_ZN12outputStream8print_crEPKcz(ptr noundef nonnull align 8 dereferenceable(56) %56, ptr noundef @.str.127, i32 noundef %58)
  %59 = load ptr, ptr %5, align 8
  %60 = load i8, ptr %11, align 1
  %61 = sext i8 %60 to i32
  call void (ptr, ptr, ...) @_ZN12outputStream5printEPKcz(ptr noundef nonnull align 8 dereferenceable(56) %59, ptr noundef @.str.196, i32 noundef %61)
  %62 = load ptr, ptr %7, align 8
  %63 = icmp ne ptr %62, null
  br i1 %63, label %64, label %67

64:                                               ; preds = %55
  %65 = load ptr, ptr %5, align 8
  %66 = load ptr, ptr %7, align 8
  call void (ptr, ptr, ...) @_ZN12outputStream5printEPKcz(ptr noundef nonnull align 8 dereferenceable(56) %65, ptr noundef @.str.31, ptr noundef %66)
  br label %67

67:                                               ; preds = %64, %55
  %68 = load ptr, ptr %8, align 8
  %69 = icmp ne ptr %68, null
  br i1 %69, label %70, label %73

70:                                               ; preds = %67
  %71 = load ptr, ptr %5, align 8
  %72 = load ptr, ptr %8, align 8
  call void (ptr, ptr, ...) @_ZN12outputStream5printEPKcz(ptr noundef nonnull align 8 dereferenceable(56) %71, ptr noundef @.str.31, ptr noundef %72)
  br label %73

73:                                               ; preds = %70, %67
  %74 = load ptr, ptr %5, align 8
  %75 = load i8, ptr %11, align 1
  %76 = sext i8 %75 to i32
  call void (ptr, ptr, ...) @_ZN12outputStream8print_crEPKcz(ptr noundef nonnull align 8 dereferenceable(56) %74, ptr noundef @.str.114, i32 noundef %76)
  %77 = load ptr, ptr %5, align 8
  %78 = load i8, ptr %10, align 1
  %79 = sext i8 %78 to i32
  call void (ptr, ptr, ...) @_ZN12outputStream5printEPKcz(ptr noundef nonnull align 8 dereferenceable(56) %77, ptr noundef @.str.127, i32 noundef %79)
  store i32 0, ptr %13, align 4
  br label %80

80:                                               ; preds = %89, %73
  %81 = load i32, ptr %13, align 4
  %82 = load i32, ptr %9, align 4
  %83 = sub i32 %82, 2
  %84 = icmp ult i32 %81, %83
  br i1 %84, label %85, label %92

85:                                               ; preds = %80
  %86 = load ptr, ptr %5, align 8
  %87 = load i8, ptr %6, align 1
  %88 = sext i8 %87 to i32
  call void (ptr, ptr, ...) @_ZN12outputStream5printEPKcz(ptr noundef nonnull align 8 dereferenceable(56) %86, ptr noundef @.str.127, i32 noundef %88)
  br label %89

89:                                               ; preds = %85
  %90 = load i32, ptr %13, align 4
  %91 = add i32 %90, 1
  store i32 %91, ptr %13, align 4
  br label %80, !llvm.loop !25

92:                                               ; preds = %80
  %93 = load ptr, ptr %5, align 8
  %94 = load i8, ptr %10, align 1
  %95 = sext i8 %94 to i32
  call void (ptr, ptr, ...) @_ZN12outputStream8print_crEPKcz(ptr noundef nonnull align 8 dereferenceable(56) %93, ptr noundef @.str.127, i32 noundef %95)
  ret void
}