; Function Attrs: mustprogress nounwind uwtable
define hidden void @_ZN13CodeHeapState8printBoxEP12outputStreamcPKcS3_(ptr noundef %0, i8 noundef signext %1, ptr noundef %2, ptr noundef %3) local_unnamed_addr #1 align 2 {
  %.not = icmp eq ptr %2, null
  br i1 %.not, label %9, label %5

5:                                                ; preds = %4
  %6 = tail call i64 @strlen(ptr noundef nonnull dereferenceable(1) %2) #11
  %7 = trunc i64 %6 to i32
  %8 = add i32 %7, 6
  br label %9

9:                                                ; preds = %5, %4
  %.039 = phi i32 [ %8, %5 ], [ 6, %4 ]
  %.not45 = icmp eq ptr %3, null
  br i1 %.not45, label %14, label %10

10:                                               ; preds = %9
  %11 = tail call i64 @strlen(ptr noundef nonnull dereferenceable(1) %3) #11
  %12 = trunc i64 %11 to i32
  %13 = add i32 %.039, %12
  br label %14

14:                                               ; preds = %10, %9
  %.1 = phi i32 [ %13, %10 ], [ %.039, %9 ]
  %15 = sext i8 %1 to i32
  %16 = icmp eq i8 %1, 45
  %.038 = select i1 %16, i32 43, i32 %15
  %.037 = select i1 %16, i32 124, i32 %15
  tail call void (ptr, ptr, ...) @_ZN12outputStream5printEPKcz(ptr noundef nonnull align 8 dereferenceable(56) %0, ptr noundef nonnull @.str.127, i32 noundef %.038) #12
  %17 = add i32 %.1, -2
  %.not51 = icmp eq i32 %17, 0
  br i1 %.not51, label %._crit_edge, label %.lr.ph

.lr.ph:                                           ; preds = %14, %.lr.ph
  %.03646 = phi i32 [ %18, %.lr.ph ], [ 0, %14 ]
  tail call void (ptr, ptr, ...) @_ZN12outputStream5printEPKcz(ptr noundef nonnull align 8 dereferenceable(56) %0, ptr noundef nonnull @.str.127, i32 noundef %15) #12
  %18 = add nuw i32 %.03646, 1
  %exitcond.not = icmp eq i32 %18, %17
  br i1 %exitcond.not, label %._crit_edge, label %.lr.ph, !llvm.loop !23

._crit_edge:                                      ; preds = %.lr.ph, %14
  tail call void (ptr, ptr, ...) @_ZN12outputStream8print_crEPKcz(ptr noundef nonnull align 8 dereferenceable(56) %0, ptr noundef nonnull @.str.127, i32 noundef %.038) #12
  tail call void (ptr, ptr, ...) @_ZN12outputStream5printEPKcz(ptr noundef nonnull align 8 dereferenceable(56) %0, ptr noundef nonnull @.str.196, i32 noundef %.037) #12
  br i1 %.not, label %20, label %19

19:                                               ; preds = %._crit_edge
  tail call void (ptr, ptr, ...) @_ZN12outputStream5printEPKcz(ptr noundef nonnull align 8 dereferenceable(56) %0, ptr noundef nonnull @.str.31, ptr noundef nonnull %2) #12
  br label %20

20:                                               ; preds = %19, %._crit_edge
  br i1 %.not45, label %22, label %21

21:                                               ; preds = %20
  tail call void (ptr, ptr, ...) @_ZN12outputStream5printEPKcz(ptr noundef nonnull align 8 dereferenceable(56) %0, ptr noundef nonnull @.str.31, ptr noundef nonnull %3) #12
  br label %22

22:                                               ; preds = %21, %20
  tail call void (ptr, ptr, ...) @_ZN12outputStream8print_crEPKcz(ptr noundef nonnull align 8 dereferenceable(56) %0, ptr noundef nonnull @.str.114, i32 noundef %.037) #12
  tail call void (ptr, ptr, ...) @_ZN12outputStream5printEPKcz(ptr noundef nonnull align 8 dereferenceable(56) %0, ptr noundef nonnull @.str.127, i32 noundef %.038) #12
  br i1 %.not51, label %._crit_edge50, label %.lr.ph49

.lr.ph49:                                         ; preds = %22, %.lr.ph49
  %.047 = phi i32 [ %23, %.lr.ph49 ], [ 0, %22 ]
  tail call void (ptr, ptr, ...) @_ZN12outputStream5printEPKcz(ptr noundef nonnull align 8 dereferenceable(56) %0, ptr noundef nonnull @.str.127, i32 noundef %15) #12
  %23 = add nuw i32 %.047, 1
  %exitcond53.not = icmp eq i32 %23, %17
  br i1 %exitcond53.not, label %._crit_edge50, label %.lr.ph49, !llvm.loop !24

._crit_edge50:                                    ; preds = %.lr.ph49, %22
  tail call void (ptr, ptr, ...) @_ZN12outputStream8print_crEPKcz(ptr noundef nonnull align 8 dereferenceable(56) %0, ptr noundef nonnull @.str.127, i32 noundef %.038) #12
  ret void
}